target datalayout = "e-m:e-p270:32:32-p271:32:32-p272:64:64-i64:64-i128:128-f80:128-n8:16:32:64-S128"
target triple = "x86_64-pc-linux-gnu"

%struct.persist_msg_t = type { ptr, ptr, i16 }
%struct.dbd_cluster_tres_msg = type { ptr, i64, ptr }

@plugin_type = dso_local constant [28 x i8] c"accounting_storage/slurmdbd\00", align 16
@.str.84 = private unnamed_addr constant [85 x i8] c"%s: %s: Ending any jobs in accounting that were running when controller went down on\00", align 1
@__func__.acct_storage_p_flush_jobs_on_cluster = private unnamed_addr constant [37 x i8] c"acct_storage_p_flush_jobs_on_cluster\00", align 1

; Function Attrs: nounwind uwtable
define dso_local i32 @acct_storage_p_flush_jobs_on_cluster(ptr noundef %0, i64 noundef %1) #0 {
  %3 = alloca i32, align 4
  %4 = alloca ptr, align 8
  %5 = alloca i64, align 8
  %6 = alloca %struct.persist_msg_t, align 8
  %7 = alloca %struct.dbd_cluster_tres_msg, align 8
  %8 = alloca i32, align 4
  store ptr %0, ptr %4, align 8
  store i64 %1, ptr %5, align 8
  call void @llvm.lifetime.start.p0(i64 24, ptr %6) #9
  call void @llvm.memset.p0.i64(ptr align 8 %6, i8 0, i64 24, i1 false)
  call void @llvm.lifetime.start.p0(i64 24, ptr %7) #9
  br label %9

9:                                                ; preds = %2
  br label %10

10:                                               ; preds = %9
  %11 = call i32 @slurm_get_log_level()
  %12 = icmp sge i32 %11, 3
  br i1 %12, label %13, label %14

13:                                               ; preds = %10
  call void (i32, ptr, ...) @slurm_log_var(i32 noundef 3, ptr noundef @.str.84, ptr noundef @plugin_type, ptr noundef @__func__.acct_storage_p_flush_jobs_on_cluster)
  br label %14

14:                                               ; preds = %13, %10
  br label %15

15:                                               ; preds = %14
  br label %16

16:                                               ; preds = %15
  br label %17

17:                                               ; preds = %16
  br label %18

18:                                               ; preds = %17
  call void @llvm.memset.p0.i64(ptr align 8 %7, i8 0, i64 24, i1 false)
  %19 = load i64, ptr %5, align 8
  %20 = getelementptr inbounds nuw %struct.dbd_cluster_tres_msg, ptr %7, i32 0, i32 1
  store i64 %19, ptr %20, align 8
  %21 = getelementptr inbounds nuw %struct.dbd_cluster_tres_msg, ptr %7, i32 0, i32 2
  store ptr null, ptr %21, align 8
  %22 = getelementptr inbounds nuw %struct.persist_msg_t, ptr %6, i32 0, i32 2
  store i16 1408, ptr %22, align 8
  %23 = load ptr, ptr %4, align 8
  %24 = getelementptr inbounds nuw %struct.persist_msg_t, ptr %6, i32 0, i32 0
  store ptr %23, ptr %24, align 8
  %25 = getelementptr inbounds nuw %struct.persist_msg_t, ptr %6, i32 0, i32 1
  store ptr %7, ptr %25, align 8
  %26 = call i32 @slurmdbd_agent_send(i16 noundef zeroext 11008, ptr noundef %6)
  %27 = icmp slt i32 %26, 0
  br i1 %27, label %28, label %29

28:                                               ; preds = %18
  store i32 -1, ptr %3, align 4
  store i32 1, ptr %8, align 4
  br label %30

29:                                               ; preds = %18
  store i32 0, ptr %3, align 4
  store i32 1, ptr %8, align 4
  br label %30

30:                                               ; preds = %29, %28
  call void @llvm.lifetime.end.p0(i64 24, ptr %7) #9
  call void @llvm.lifetime.end.p0(i64 24, ptr %6) #9
  %31 = load i32, ptr %3, align 4
  ret i32 %31
}