; Function Attrs: nounwind uwtable
define dso_local range(i32 -1, 1) i32 @acct_storage_p_flush_jobs_on_cluster(ptr noundef %0, i64 noundef %1) local_unnamed_addr #0 {
  %3 = alloca %struct.persist_msg_t, align 8
  %4 = alloca %struct.dbd_cluster_tres_msg, align 8
  call void @llvm.lifetime.start.p0(i64 24, ptr nonnull %3) #11
  %5 = getelementptr inbounds nuw i8, ptr %3, i64 16
  store i64 0, ptr %5, align 8
  call void @llvm.lifetime.start.p0(i64 24, ptr nonnull %4) #11
  %6 = tail call i32 @slurm_get_log_level() #11
  %7 = icmp sgt i32 %6, 2
  br i1 %7, label %8, label %9

8:                                                ; preds = %2
  tail call void (i32, ptr, ...) @slurm_log_var(i32 noundef 3, ptr noundef nonnull @.str.84, ptr noundef nonnull @plugin_type, ptr noundef nonnull @__func__.acct_storage_p_flush_jobs_on_cluster) #11
  br label %9

9:                                                ; preds = %8, %2
  store i64 0, ptr %4, align 8
  %10 = getelementptr inbounds nuw i8, ptr %4, i64 8
  store i64 %1, ptr %10, align 8
  %11 = getelementptr inbounds nuw i8, ptr %4, i64 16
  store ptr null, ptr %11, align 8
  %12 = getelementptr inbounds nuw i8, ptr %3, i64 16
  store i16 1408, ptr %12, align 8
  store ptr %0, ptr %3, align 8
  %13 = getelementptr inbounds nuw i8, ptr %3, i64 8
  store ptr %4, ptr %13, align 8
  %14 = call i32 @slurmdbd_agent_send(i16 noundef zeroext 11008, ptr noundef nonnull %3) #11
  %.lobit = ashr i32 %14, 31
  call void @llvm.lifetime.end.p0(i64 24, ptr nonnull %4) #11
  call void @llvm.lifetime.end.p0(i64 24, ptr nonnull %3) #11
  ret i32 %.lobit
}